target datalayout = "e-m:e-p270:32:32-p271:32:32-p272:64:64-i64:64-i128:128-f80:128-n8:16:32:64-S128"
target triple = "x86_64-pc-linux-gnu"

%struct.Curl_cftype = type { ptr, i32, i32, ptr, ptr, ptr, ptr, ptr, ptr, ptr, ptr, ptr, ptr, ptr, ptr, ptr }
%struct.Curl_cfilter = type { ptr, ptr, ptr, ptr, i32, i8 }
%struct.Curl_easy = type { i32, i64, i64, ptr, %struct.Curl_llist_node, %struct.Curl_llist_node, i32, i32, %struct.Curl_message, %struct.easy_pollset, %struct.Names, ptr, ptr, ptr, ptr, %struct.SingleRequest, %struct.UserDefined, ptr, ptr, ptr, %struct.Progress, %struct.UrlState, ptr, %struct.PureInfo, %struct.curl_tlssessioninfo }
%struct.Curl_llist_node = type { ptr, ptr, ptr, ptr }
%struct.Curl_message = type { %struct.Curl_llist_node, %struct.CURLMsg }
%struct.CURLMsg = type { i32, ptr, %union.anon.0 }
%union.anon.0 = type { ptr }
%struct.easy_pollset = type { [5 x i32], i32, [5 x i8] }
%struct.Names = type { ptr, i32 }
%struct.SingleRequest = type <{ i64, i64, i64, i64, %struct.curltime, i32, i32, i32, i32, i64, i32, i32, i8, i8, [2 x i8], i32, ptr, ptr, %struct.bufq, i64, i64, ptr, ptr, %union.anon.1, ptr, i8, i32, [3 x i8] }>
%struct.curltime = type { i64, i32 }
%struct.bufq = type { ptr, ptr, ptr, ptr, i64, i64, i64, i32 }
%union.anon.1 = type { ptr }
%struct.UserDefined = type <{ ptr, ptr, ptr, ptr, ptr, ptr, i64, i64, i64, ptr, ptr, i64, ptr, ptr, ptr, ptr, ptr, ptr, ptr, ptr, ptr, ptr, ptr, ptr, ptr, ptr, ptr, ptr, ptr, ptr, ptr, ptr, ptr, ptr, ptr, i64, i64, i64, i64, i64, i64, i64, i64, i64, ptr, ptr, %struct.curl_mimepart, ptr, ptr, ptr, i64, %struct.ssl_config_data, %struct.ssl_config_data, ptr, i16, i8, i8, %struct.ssl_general_config, i32, i32, i32, [4 x i8], ptr, ptr, i64, i32, i8, i8, i8, i8, ptr, ptr, ptr, i32, [4 x i8], [74 x ptr], [8 x ptr], i32, i32, i32, [4 x i8], ptr, i32, [4 x i8], ptr, ptr, ptr, ptr, ptr, i32, i32, i32, i32, i32, i32, i32, i32, i64, ptr, ptr, i64, ptr, i64, ptr, ptr, ptr, ptr, i32, i16, i16, i16, i8, i8, i8, i8, i8, i8, i8, i8, i64, [6 x i8] }>
%struct.curl_mimepart = type { ptr, ptr, i32, i32, ptr, ptr, ptr, ptr, ptr, ptr, ptr, ptr, ptr, ptr, ptr, i64, %struct.mime_state, ptr, %struct.mime_encoder_state, i64 }
%struct.mime_state = type { i32, ptr, i64 }
%struct.mime_encoder_state = type { i64, i64, i64, [256 x i8] }
%struct.ssl_config_data = type { %struct.ssl_primary_config, i64, ptr, ptr, ptr, ptr, ptr, ptr, ptr, i16 }
%struct.ssl_primary_config = type { ptr, ptr, ptr, ptr, ptr, ptr, ptr, ptr, ptr, ptr, ptr, ptr, ptr, ptr, i8, i32, i8, i8 }
%struct.ssl_general_config = type { i32 }
%struct.Progress = type { i64, %struct.pgrs_dir, %struct.pgrs_dir, i64, i64, i32, i32, i64, i64, i64, i64, i64, i64, i64, i64, i64, %struct.curltime, %struct.curltime, %struct.curltime, %struct.curltime, %struct.curltime, [6 x i64], [6 x %struct.curltime], i32, i8 }
%struct.pgrs_dir = type { i64, i64, i64, %struct.pgrs_measure }
%struct.pgrs_measure = type { %struct.curltime, i64 }
%struct.UrlState = type { %struct.curltime, i64, i64, %struct.dynbuf, ptr, i64, ptr, i32, i32, i32, ptr, i32, i64, i32, ptr, %struct.digestdata, %struct.digestdata, %struct.auth, %struct.auth, %struct.Curl_async, ptr, i8, %struct.curltime, %struct.Curl_tree, %struct.Curl_llist, [15 x %struct.time_node], ptr, ptr, i64, i64, i64, i64, [32 x i8], i64, ptr, ptr, ptr, %struct.urlpieces, ptr, ptr, ptr, ptr, ptr, i64, %struct.dynbuf, %struct.Curl_llist, [2 x %struct.curl_header], ptr, i32, ptr, ptr, %struct.store_netrc, %struct.dynamically_allocated_data, i8, i8, i8, i8, i32 }
%struct.digestdata = type { ptr, ptr, ptr, ptr, ptr, ptr, i32, i8, i8 }
%struct.auth = type { i64, i64, i64, i8 }
%struct.Curl_async = type { ptr, ptr, ptr, ptr, i32, i32, i8 }
%struct.Curl_tree = type { ptr, ptr, ptr, ptr, %struct.curltime, ptr }
%struct.time_node = type { %struct.Curl_llist_node, %struct.curltime, i32 }
%struct.urlpieces = type { ptr, ptr, ptr, ptr, ptr, ptr, ptr, ptr }
%struct.dynbuf = type { ptr, i64, i64, i64 }
%struct.Curl_llist = type { ptr, ptr, ptr, i64 }
%struct.curl_header = type { ptr, ptr, i64, i64, i32, ptr }
%struct.store_netrc = type { %struct.dynbuf, ptr, i8 }
%struct.dynamically_allocated_data = type { ptr, ptr, ptr, ptr, ptr, ptr, ptr, ptr, ptr, ptr, ptr, ptr, ptr, ptr }
%struct.PureInfo = type { i32, i32, i32, i64, i64, i64, i64, i64, i64, i64, ptr, ptr, i64, i32, %struct.ip_quadruple, i32, ptr, i32, %struct.curl_certinfo, i32, i8 }
%struct.ip_quadruple = type { [46 x i8], [46 x i8], i32, i32 }
%struct.curl_certinfo = type { i32, ptr }
%struct.curl_tlssessioninfo = type { i32, ptr }
%struct.curl_trc_feat = type { ptr, i32 }
%struct.cf_hc_ctx = type { i32, ptr, %struct.curltime, i32, [2 x %struct.cf_hc_baller], i64, i32, i32 }
%struct.cf_hc_baller = type { ptr, ptr, i32, %struct.curltime, i32, i32, i8 }

@.str.14 = private unnamed_addr constant [27 x i8] c"adjust_pollset -> %d socks\00", align 1

; Function Attrs: nounwind uwtable
define internal zeroext i1 @cf_hc_baller_is_active(ptr noundef %0) #0 {
  %2 = alloca ptr, align 8
  store ptr %0, ptr %2, align 8, !tbaa !123
  %3 = load ptr, ptr %2, align 8, !tbaa !123
  %4 = getelementptr inbounds nuw %struct.cf_hc_baller, ptr %3, i32 0, i32 1
  %5 = load ptr, ptr %4, align 8, !tbaa !125
  %6 = icmp ne ptr %5, null
  br i1 %6, label %7, label %13

7:                                                ; preds = %1
  %8 = load ptr, ptr %2, align 8, !tbaa !123
  %9 = getelementptr inbounds nuw %struct.cf_hc_baller, ptr %8, i32 0, i32 2
  %10 = load i32, ptr %9, align 8, !tbaa !117
  %11 = icmp ne i32 %10, 0
  %12 = xor i1 %11, true
  br label %13

13:                                               ; preds = %7, %1
  %14 = phi i1 [ false, %1 ], [ %12, %7 ]
  ret i1 %14
}

; Function Attrs: nounwind uwtable
define internal void @cf_hc_adjust_pollset(ptr noundef %0, ptr noundef %1, ptr noundef %2) #0 {
  %4 = alloca ptr, align 8
  %5 = alloca ptr, align 8
  %6 = alloca ptr, align 8
  %7 = alloca ptr, align 8
  %8 = alloca i64, align 8
  %9 = alloca ptr, align 8
  %10 = alloca i32, align 4
  store ptr %0, ptr %4, align 8, !tbaa !3
  store ptr %1, ptr %5, align 8, !tbaa !8
  store ptr %2, ptr %6, align 8, !tbaa !130
  %11 = load ptr, ptr %4, align 8, !tbaa !3
  %12 = getelementptr inbounds nuw %struct.Curl_cfilter, ptr %11, i32 0, i32 5
  %13 = load i8, ptr %12, align 4
  %14 = and i8 %13, 1
  %15 = zext i8 %14 to i32
  %16 = icmp ne i32 %15, 0
  br i1 %16, label %93, label %17

17:                                               ; preds = %3
  call void @llvm.lifetime.start.p0(i64 8, ptr %7) #5
  %18 = load ptr, ptr %4, align 8, !tbaa !3
  %19 = getelementptr inbounds nuw %struct.Curl_cfilter, ptr %18, i32 0, i32 2
  %20 = load ptr, ptr %19, align 8, !tbaa !10
  store ptr %20, ptr %7, align 8, !tbaa !15
  call void @llvm.lifetime.start.p0(i64 8, ptr %8) #5
  store i64 0, ptr %8, align 8, !tbaa !96
  br label %21

21:                                               ; preds = %44, %17
  %22 = load i64, ptr %8, align 8, !tbaa !96
  %23 = load ptr, ptr %7, align 8, !tbaa !15
  %24 = getelementptr inbounds nuw %struct.cf_hc_ctx, ptr %23, i32 0, i32 5
  %25 = load i64, ptr %24, align 8, !tbaa !99
  %26 = icmp ult i64 %22, %25
  br i1 %26, label %27, label %47

27:                                               ; preds = %21
  call void @llvm.lifetime.start.p0(i64 8, ptr %9) #5
  %28 = load ptr, ptr %7, align 8, !tbaa !15
  %29 = getelementptr inbounds nuw %struct.cf_hc_ctx, ptr %28, i32 0, i32 4
  %30 = load i64, ptr %8, align 8, !tbaa !96
  %31 = getelementptr inbounds nuw [2 x %struct.cf_hc_baller], ptr %29, i64 0, i64 %30
  store ptr %31, ptr %9, align 8, !tbaa !123
  %32 = load ptr, ptr %9, align 8, !tbaa !123
  %33 = call zeroext i1 @cf_hc_baller_is_active(ptr noundef %32)
  br i1 %33, label %35, label %34

34:                                               ; preds = %27
  store i32 4, ptr %10, align 4
  br label %41

35:                                               ; preds = %27
  %36 = load ptr, ptr %9, align 8, !tbaa !123
  %37 = getelementptr inbounds nuw %struct.cf_hc_baller, ptr %36, i32 0, i32 1
  %38 = load ptr, ptr %37, align 8, !tbaa !125
  %39 = load ptr, ptr %5, align 8, !tbaa !8
  %40 = load ptr, ptr %6, align 8, !tbaa !130
  call void @Curl_conn_cf_adjust_pollset(ptr noundef %38, ptr noundef %39, ptr noundef %40)
  store i32 0, ptr %10, align 4
  br label %41

41:                                               ; preds = %35, %34
  call void @llvm.lifetime.end.p0(i64 8, ptr %9) #5
  %42 = load i32, ptr %10, align 4
  switch i32 %42, label %94 [
    i32 0, label %43
    i32 4, label %44
  ]

43:                                               ; preds = %41
  br label %44

44:                                               ; preds = %43, %41
  %45 = load i64, ptr %8, align 8, !tbaa !96
  %46 = add i64 %45, 1
  store i64 %46, ptr %8, align 8, !tbaa !96
  br label %21, !llvm.loop !132

47:                                               ; preds = %21
  br label %48

48:                                               ; preds = %47
  %49 = load ptr, ptr %5, align 8, !tbaa !8
  %50 = icmp ne ptr %49, null
  br i1 %50, label %51, label %90

51:                                               ; preds = %48
  %52 = load ptr, ptr %5, align 8, !tbaa !8
  %53 = getelementptr inbounds nuw %struct.Curl_easy, ptr %52, i32 0, i32 16
  %54 = getelementptr inbounds nuw %struct.UserDefined, ptr %53, i32 0, i32 119
  %55 = load i64, ptr %54, align 2
  %56 = lshr i64 %55, 31
  %57 = and i64 %56, 1
  %58 = trunc i64 %57 to i32
  %59 = icmp ne i32 %58, 0
  br i1 %59, label %60, label %90

60:                                               ; preds = %51
  %61 = load ptr, ptr %5, align 8, !tbaa !8
  %62 = getelementptr inbounds nuw %struct.Curl_easy, ptr %61, i32 0, i32 21
  %63 = getelementptr inbounds nuw %struct.UrlState, ptr %62, i32 0, i32 50
  %64 = load ptr, ptr %63, align 8, !tbaa !17
  %65 = icmp ne ptr %64, null
  br i1 %65, label %66, label %74

66:                                               ; preds = %60
  %67 = load ptr, ptr %5, align 8, !tbaa !8
  %68 = getelementptr inbounds nuw %struct.Curl_easy, ptr %67, i32 0, i32 21
  %69 = getelementptr inbounds nuw %struct.UrlState, ptr %68, i32 0, i32 50
  %70 = load ptr, ptr %69, align 8, !tbaa !17
  %71 = getelementptr inbounds nuw %struct.curl_trc_feat, ptr %70, i32 0, i32 1
  %72 = load i32, ptr %71, align 8, !tbaa !84
  %73 = icmp sge i32 %72, 1
  br i1 %73, label %74, label %90

74:                                               ; preds = %66, %60
  %75 = load ptr, ptr %4, align 8, !tbaa !3
  %76 = icmp ne ptr %75, null
  br i1 %76, label %77, label %90

77:                                               ; preds = %74
  %78 = load ptr, ptr %4, align 8, !tbaa !3
  %79 = getelementptr inbounds nuw %struct.Curl_cfilter, ptr %78, i32 0, i32 0
  %80 = load ptr, ptr %79, align 8, !tbaa !86
  %81 = getelementptr inbounds nuw %struct.Curl_cftype, ptr %80, i32 0, i32 2
  %82 = load i32, ptr %81, align 4, !tbaa !87
  %83 = icmp sge i32 %82, 1
  br i1 %83, label %84, label %90

84:                                               ; preds = %77
  %85 = load ptr, ptr %5, align 8, !tbaa !8
  %86 = load ptr, ptr %4, align 8, !tbaa !3
  %87 = load ptr, ptr %6, align 8, !tbaa !130
  %88 = getelementptr inbounds nuw %struct.easy_pollset, ptr %87, i32 0, i32 1
  %89 = load i32, ptr %88, align 4, !tbaa !133
  call void (ptr, ptr, ptr, ...) @Curl_trc_cf_infof(ptr noundef %85, ptr noundef %86, ptr noundef @.str.14, i32 noundef %89)
  br label %90

90:                                               ; preds = %84, %77, %74, %66, %51, %48
  br label %91

91:                                               ; preds = %90
  br label %92

92:                                               ; preds = %91
  call void @llvm.lifetime.end.p0(i64 8, ptr %8) #5
  call void @llvm.lifetime.end.p0(i64 8, ptr %7) #5
  br label %93

93:                                               ; preds = %92, %3
  ret void

94:                                               ; preds = %41
  unreachable
}