; Function Attrs: nounwind uwtable
define internal void @cf_hc_adjust_pollset(ptr noundef %0, ptr noundef %1, ptr noundef %2) #0 {
  %4 = getelementptr inbounds nuw i8, ptr %0, i64 36
  %5 = load i8, ptr %4, align 4
  %6 = and i8 %5, 1
  %.not = icmp eq i8 %6, 0
  br i1 %.not, label %7, label %45

7:                                                ; preds = %3
  %8 = getelementptr inbounds nuw i8, ptr %0, i64 16
  %9 = load ptr, ptr %8, align 8, !tbaa !3
  %10 = getelementptr inbounds nuw i8, ptr %9, i64 152
  %11 = load i64, ptr %10, align 8, !tbaa !84
  %.not26 = icmp eq i64 %11, 0
  br i1 %.not26, label %._crit_edge, label %.lr.ph

.lr.ph:                                           ; preds = %7
  %12 = getelementptr inbounds nuw i8, ptr %9, i64 40
  br label %13

13:                                               ; preds = %.lr.ph, %cf_hc_baller_is_active.exit.thread
  %14 = phi i64 [ %11, %.lr.ph ], [ %21, %cf_hc_baller_is_active.exit.thread ]
  %.025 = phi i64 [ 0, %.lr.ph ], [ %22, %cf_hc_baller_is_active.exit.thread ]
  %15 = getelementptr inbounds nuw [2 x %struct.cf_hc_baller], ptr %12, i64 0, i64 %.025
  %16 = getelementptr inbounds nuw i8, ptr %15, i64 8
  %17 = load ptr, ptr %16, align 8, !tbaa !86
  %.not.i = icmp eq ptr %17, null
  br i1 %.not.i, label %cf_hc_baller_is_active.exit.thread, label %cf_hc_baller_is_active.exit

cf_hc_baller_is_active.exit:                      ; preds = %13
  %18 = getelementptr inbounds nuw i8, ptr %15, i64 16
  %19 = load i32, ptr %18, align 8, !tbaa !88
  %.not2.i = icmp eq i32 %19, 0
  br i1 %.not2.i, label %20, label %cf_hc_baller_is_active.exit.thread

20:                                               ; preds = %cf_hc_baller_is_active.exit
  tail call void @Curl_conn_cf_adjust_pollset(ptr noundef nonnull %17, ptr noundef %1, ptr noundef %2) #4
  %.pre = load i64, ptr %10, align 8, !tbaa !84
  br label %cf_hc_baller_is_active.exit.thread

cf_hc_baller_is_active.exit.thread:               ; preds = %13, %cf_hc_baller_is_active.exit, %20
  %21 = phi i64 [ %14, %13 ], [ %14, %cf_hc_baller_is_active.exit ], [ %.pre, %20 ]
  %22 = add nuw i64 %.025, 1
  %23 = icmp ult i64 %22, %21
  br i1 %23, label %13, label %._crit_edge, !llvm.loop !126

._crit_edge:                                      ; preds = %cf_hc_baller_is_active.exit.thread, %7
  %.not22 = icmp eq ptr %1, null
  br i1 %.not22, label %45, label %24

24:                                               ; preds = %._crit_edge
  %25 = getelementptr inbounds nuw i8, ptr %1, i64 2658
  %26 = load i64, ptr %25, align 2
  %27 = and i64 %26, 2147483648
  %.not23 = icmp eq i64 %27, 0
  br i1 %.not23, label %45, label %28

28:                                               ; preds = %24
  %29 = getelementptr inbounds nuw i8, ptr %1, i64 4864
  %30 = load ptr, ptr %29, align 8, !tbaa !12
  %.not24 = icmp eq ptr %30, null
  br i1 %.not24, label %36, label %31

31:                                               ; preds = %28
  %32 = getelementptr inbounds nuw i8, ptr %30, i64 8
  %33 = load i32, ptr %32, align 8, !tbaa !79
  %34 = icmp sgt i32 %33, 0
  %35 = icmp ne ptr %0, null
  %or.cond = and i1 %35, %34
  br i1 %or.cond, label %37, label %45

36:                                               ; preds = %28
  %.old1.not = icmp eq ptr %0, null
  br i1 %.old1.not, label %45, label %37

37:                                               ; preds = %31, %36
  %38 = load ptr, ptr %0, align 8, !tbaa !81
  %39 = getelementptr inbounds nuw i8, ptr %38, i64 12
  %40 = load i32, ptr %39, align 4, !tbaa !82
  %41 = icmp sgt i32 %40, 0
  br i1 %41, label %42, label %45

42:                                               ; preds = %37
  %43 = getelementptr inbounds nuw i8, ptr %2, i64 20
  %44 = load i32, ptr %43, align 4, !tbaa !127
  tail call void (ptr, ptr, ptr, ...) @Curl_trc_cf_infof(ptr noundef nonnull %1, ptr noundef nonnull %0, ptr noundef nonnull @.str.14, i32 noundef %44) #4
  br label %45

45:                                               ; preds = %._crit_edge, %24, %31, %36, %37, %42, %3
  ret void
}